target datalayout = "e-m:e-p270:32:32-p271:32:32-p272:64:64-i64:64-i128:128-f80:128-n8:16:32:64-S128"
target triple = "x86_64-pc-linux-gnu"

@.str.12 = private unnamed_addr constant [32 x i8] c"../openssl/crypto/cmp/cmp_asn.c\00", align 1
@__func__.ossl_cmp_asn1_get_int = private unnamed_addr constant [22 x i8] c"ossl_cmp_asn1_get_int\00", align 1

; Function Attrs: nounwind uwtable
define i32 @ossl_cmp_asn1_get_int(ptr noundef %0) #0 {
  %2 = alloca i32, align 4
  %3 = alloca ptr, align 8
  %4 = alloca i64, align 8
  %5 = alloca i32, align 4
  store ptr %0, ptr %3, align 8, !tbaa !97
  call void @llvm.lifetime.start.p0(i64 8, ptr %4) #4
  %6 = load ptr, ptr %3, align 8, !tbaa !97
  %7 = call i32 @ASN1_INTEGER_get_int64(ptr noundef %4, ptr noundef %6)
  %8 = icmp ne i32 %7, 0
  br i1 %8, label %10, label %9

9:                                                ; preds = %1
  call void @ERR_new()
  call void @ERR_set_debug(ptr noundef @.str.12, i32 noundef 837, ptr noundef @__func__.ossl_cmp_asn1_get_int)
  call void (i32, i32, ptr, ...) @ERR_set_error(i32 noundef 58, i32 noundef 187, ptr noundef null)
  store i32 -2, ptr %2, align 4
  store i32 1, ptr %5, align 4
  br label %21

10:                                               ; preds = %1
  %11 = load i64, ptr %4, align 8, !tbaa !10
  %12 = icmp slt i64 %11, -2147483648
  br i1 %12, label %13, label %14

13:                                               ; preds = %10
  call void @ERR_new()
  call void @ERR_set_debug(ptr noundef @.str.12, i32 noundef 841, ptr noundef @__func__.ossl_cmp_asn1_get_int)
  call void (i32, i32, ptr, ...) @ERR_set_error(i32 noundef 58, i32 noundef 224, ptr noundef null)
  store i32 -2, ptr %2, align 4
  store i32 1, ptr %5, align 4
  br label %21

14:                                               ; preds = %10
  %15 = load i64, ptr %4, align 8, !tbaa !10
  %16 = icmp sgt i64 %15, 2147483647
  br i1 %16, label %17, label %18

17:                                               ; preds = %14
  call void @ERR_new()
  call void @ERR_set_debug(ptr noundef @.str.12, i32 noundef 845, ptr noundef @__func__.ossl_cmp_asn1_get_int)
  call void (i32, i32, ptr, ...) @ERR_set_error(i32 noundef 58, i32 noundef 223, ptr noundef null)
  store i32 -2, ptr %2, align 4
  store i32 1, ptr %5, align 4
  br label %21

18:                                               ; preds = %14
  %19 = load i64, ptr %4, align 8, !tbaa !10
  %20 = trunc i64 %19 to i32
  store i32 %20, ptr %2, align 4
  store i32 1, ptr %5, align 4
  br label %21

21:                                               ; preds = %18, %17, %13, %9
  call void @llvm.lifetime.end.p0(i64 8, ptr %4) #4
  %22 = load i32, ptr %2, align 4
  ret i32 %22
}