; Function Attrs: nounwind uwtable
define i32 @ossl_cmp_asn1_get_int(ptr noundef %0) local_unnamed_addr #1 {
  %2 = alloca i64, align 8
  call void @llvm.lifetime.start.p0(i64 8, ptr nonnull %2) #6
  %3 = call i32 @ASN1_INTEGER_get_int64(ptr noundef nonnull %2, ptr noundef %0) #6
  %.not = icmp eq i32 %3, 0
  br i1 %.not, label %4, label %5

4:                                                ; preds = %1
  call void @ERR_new() #6
  call void @ERR_set_debug(ptr noundef nonnull @.str.12, i32 noundef 837, ptr noundef nonnull @__func__.ossl_cmp_asn1_get_int) #6
  call void (i32, i32, ptr, ...) @ERR_set_error(i32 noundef 58, i32 noundef 187, ptr noundef null) #6
  br label %14

5:                                                ; preds = %1
  %6 = load i64, ptr %2, align 8, !tbaa !33
  %7 = icmp slt i64 %6, -2147483648
  br i1 %7, label %8, label %9

8:                                                ; preds = %5
  call void @ERR_new() #6
  call void @ERR_set_debug(ptr noundef nonnull @.str.12, i32 noundef 841, ptr noundef nonnull @__func__.ossl_cmp_asn1_get_int) #6
  call void (i32, i32, ptr, ...) @ERR_set_error(i32 noundef 58, i32 noundef 224, ptr noundef null) #6
  br label %14

9:                                                ; preds = %5
  %10 = icmp sgt i64 %6, 2147483647
  br i1 %10, label %11, label %12

11:                                               ; preds = %9
  call void @ERR_new() #6
  call void @ERR_set_debug(ptr noundef nonnull @.str.12, i32 noundef 845, ptr noundef nonnull @__func__.ossl_cmp_asn1_get_int) #6
  call void (i32, i32, ptr, ...) @ERR_set_error(i32 noundef 58, i32 noundef 223, ptr noundef null) #6
  br label %14

12:                                               ; preds = %9
  %13 = trunc nsw i64 %6 to i32
  br label %14

14:                                               ; preds = %12, %11, %8, %4
  %.0 = phi i32 [ -2, %8 ], [ -2, %11 ], [ %13, %12 ], [ -2, %4 ]
  call void @llvm.lifetime.end.p0(i64 8, ptr nonnull %2) #6
  ret i32 %.0
}